; ModuleID = '44/961.c'
source_filename = "44/961.c"
target datalayout = "e-m:e-p270:32:32-p271:32:32-p272:64:64-i64:64-f80:128-n8:16:32:64-S128"
target triple = "x86_64-pc-linux-gnu"

@.str = private unnamed_addr constant [3 x i8] c"%d\00", align 1
@.str.1 = private unnamed_addr constant [4 x i8] c"%d\0A\00", align 1

; Function Attrs: noinline nounwind uwtable
define dso_local void @main() #0 {
  %1 = alloca [6 x i32], align 16
  %2 = alloca i32, align 4
  %3 = alloca i32, align 4
  store i32 0, i32* %3, align 4
  br label %4

4:                                                ; preds = %19, %0
  %5 = load i32, i32* %3, align 4
  %6 = icmp slt i32 %5, 6
  br i1 %6, label %7, label %22

7:                                                ; preds = %4
  %8 = load i32, i32* %3, align 4
  %9 = sext i32 %8 to i64
  %10 = getelementptr inbounds [6 x i32], [6 x i32]* %1, i64 0, i64 %9
  %11 = call i32 (i8*, ...) @__isoc99_scanf(i8* getelementptr inbounds ([3 x i8], [3 x i8]* @.str, i64 0, i64 0), i32* %10)
  %12 = load i32, i32* %3, align 4
  %13 = sext i32 %12 to i64
  %14 = getelementptr inbounds [6 x i32], [6 x i32]* %1, i64 0, i64 %13
  %15 = load i32, i32* %14, align 4
  %16 = call i32 @copy(i32 %15)
  store i32 %16, i32* %2, align 4
  %17 = load i32, i32* %2, align 4
  %18 = call i32 (i8*, ...) @printf(i8* getelementptr inbounds ([4 x i8], [4 x i8]* @.str.1, i64 0, i64 0), i32 %17)
  br label %19

19:                                               ; preds = %7
  %20 = load i32, i32* %3, align 4
  %21 = add nsw i32 %20, 1
  store i32 %21, i32* %3, align 4
  br label %4

22:                                               ; preds = %4
  ret void
}

declare dso_local i32 @__isoc99_scanf(i8*, ...) #1

; Function Attrs: noinline nounwind uwtable
define dso_local i32 @copy(i32 %0) #0 {
  %2 = alloca i32, align 4
  %3 = alloca i32, align 4
  %4 = alloca i32, align 4
  %5 = alloca i32, align 4
  store i32 %0, i32* %2, align 4
  %6 = load i32, i32* %2, align 4
  store i32 %6, i32* %3, align 4
  %7 = load i32, i32* %3, align 4
  %8 = srem i32 %7, 10
  store i32 %8, i32* %4, align 4
  br label %9

9:                                                ; preds = %18, %1
  %10 = load i32, i32* %3, align 4
  %11 = sdiv i32 %10, 10
  store i32 %11, i32* %3, align 4
  %12 = load i32, i32* %3, align 4
  %13 = srem i32 %12, 10
  store i32 %13, i32* %5, align 4
  %14 = load i32, i32* %4, align 4
  %15 = mul nsw i32 %14, 10
  %16 = load i32, i32* %5, align 4
  %17 = add nsw i32 %15, %16
  store i32 %17, i32* %4, align 4
  br label %18

18:                                               ; preds = %9
  %19 = load i32, i32* %3, align 4
  %20 = sdiv i32 %19, 10
  %21 = icmp ne i32 %20, 0
  br i1 %21, label %9, label %22

22:                                               ; preds = %18
  %23 = load i32, i32* %4, align 4
  ret i32 %23
}

declare dso_local i32 @printf(i8*, ...) #1


!llvm.module.flags = !{!0}
!llvm.ident = !{!1}

!0 = !{i32 1, !"wchar_size", i32 4}
!1 = !{!"clang version 10.0.0-4ubuntu1 "}
